; Function Attrs: mustprogress uwtable
define noundef i32 @uplrules_selectForRange_77(ptr noundef %0, ptr noundef %1, ptr noundef %2, i32 noundef %3, ptr noundef %4) local_unnamed_addr #1 personality ptr @__gxx_personality_v0 {
  %6 = alloca %"class.icu_77::UnicodeString", align 8
  %7 = alloca %"class.icu_77::Char16Ptr", align 8
  %8 = load i32, ptr %4, align 4, !tbaa !13
  %9 = icmp slt i32 %8, 1
  br i1 %9, label %10, label %24

10:                                               ; preds = %5
  %11 = icmp eq ptr %2, null
  br i1 %11, label %12, label %13

12:                                               ; preds = %10
  %.not15 = icmp eq i32 %3, 0
  br i1 %.not15, label %16, label %15

13:                                               ; preds = %10
  %14 = icmp slt i32 %3, 0
  br i1 %14, label %15, label %16

15:                                               ; preds = %13, %12
  store i32 1, ptr %4, align 4, !tbaa !13
  br label %24

16:                                               ; preds = %13, %12
  %17 = tail call noundef ptr @_ZN6icu_776number4impl29validateUFormattedNumberRangeEPK21UFormattedNumberRangeR10UErrorCode(ptr noundef %1, ptr noundef nonnull align 4 dereferenceable(4) %4)
  call void @llvm.lifetime.start.p0(i64 64, ptr nonnull %6) #14
  call void @_ZNK6icu_7711PluralRules6selectEPKNS_6number4impl25UFormattedNumberRangeDataER10UErrorCode(ptr dead_on_unwind nonnull writable sret(%"class.icu_77::UnicodeString") align 8 %6, ptr noundef nonnull align 8 dereferenceable(28) %0, ptr noundef %17, ptr noundef nonnull align 4 dereferenceable(4) %4)
  store ptr %2, ptr %7, align 8, !tbaa !17
  %18 = invoke noundef i32 @_ZNK6icu_7713UnicodeString7extractENS_9Char16PtrEiR10UErrorCode(ptr noundef nonnull align 8 dereferenceable(64) %6, ptr noundef nonnull %7, i32 noundef %3, ptr noundef nonnull align 4 dereferenceable(4) %4)
          to label %19 unwind label %21

19:                                               ; preds = %16
  %20 = load ptr, ptr %7, align 8, !tbaa !17
  call void asm sideeffect "", "rm,~{memory},~{dirflag},~{fpsr},~{flags}"(ptr %20) #14, !srcloc !20
  call void @_ZN6icu_7713UnicodeStringD1Ev(ptr noundef nonnull align 8 dereferenceable(64) %6) #14
  call void @llvm.lifetime.end.p0(i64 64, ptr nonnull %6) #14
  br label %24

21:                                               ; preds = %16
  %22 = landingpad { ptr, i32 }
          cleanup
  %23 = load ptr, ptr %7, align 8, !tbaa !17
  call void asm sideeffect "", "rm,~{memory},~{dirflag},~{fpsr},~{flags}"(ptr %23) #14, !srcloc !20
  call void @_ZN6icu_7713UnicodeStringD1Ev(ptr noundef nonnull align 8 dereferenceable(64) %6) #14
  call void @llvm.lifetime.end.p0(i64 64, ptr nonnull %6) #14
  resume { ptr, i32 } %22

24:                                               ; preds = %5, %19, %15
  %.0 = phi i32 [ 0, %15 ], [ %18, %19 ], [ 0, %5 ]
  ret i32 %.0
}